; Function Attrs: cold nounwind optsize uwtable
define internal range(i32 -2147483648, 1) i32 @init(ptr noundef %0) #0 {
  %2 = alloca ptr, align 8
  %3 = getelementptr inbounds nuw i8, ptr %0, i64 72
  %4 = load ptr, ptr %3, align 8, !tbaa !4
  %5 = getelementptr inbounds nuw i8, ptr %4, i64 8
  %6 = load ptr, ptr %5, align 8, !tbaa !20
  %7 = getelementptr inbounds nuw i8, ptr %4, i64 32
  br label %8

8:                                                ; preds = %25, %1
  %.058 = phi ptr [ %6, %1 ], [ %.059, %25 ]
  %.not = icmp eq ptr %.058, null
  br i1 %.not, label %29, label %9

9:                                                ; preds = %8
  %10 = tail call ptr @strchr(ptr noundef nonnull dereferenceable(1) %.058, i32 noundef 124) #7
  %.not90 = icmp eq ptr %10, null
  br i1 %.not90, label %15, label %11

11:                                               ; preds = %9
  %12 = load i8, ptr %10, align 1, !tbaa !23
  %.not91 = icmp eq i8 %12, 0
  br i1 %.not91, label %15, label %13

13:                                               ; preds = %11
  %14 = getelementptr inbounds nuw i8, ptr %10, i64 1
  store i8 0, ptr %10, align 1, !tbaa !23
  br label %15

15:                                               ; preds = %13, %11, %9
  %.059 = phi ptr [ %14, %13 ], [ %10, %11 ], [ null, %9 ]
  call void @llvm.lifetime.start.p0(i64 8, ptr nonnull %2) #8
  %16 = tail call i32 @av_get_pix_fmt(ptr noundef nonnull %.058) #8
  %17 = icmp eq i32 %16, -1
  br i1 %17, label %18, label %25

18:                                               ; preds = %15
  %19 = call i64 @strtol(ptr noundef nonnull %.058, ptr noundef nonnull %2, i32 noundef 0) #8
  %20 = load ptr, ptr %2, align 8, !tbaa !24
  %21 = load i8, ptr %20, align 1, !tbaa !23
  %.not.i = icmp eq i8 %21, 0
  br i1 %.not.i, label %22, label %parse_pixel_format.exit

22:                                               ; preds = %18
  %23 = trunc i64 %19 to i32
  %24 = tail call ptr @av_pix_fmt_desc_get(i32 noundef %23) #8
  %.not10.i = icmp eq ptr %24, null
  br i1 %.not10.i, label %parse_pixel_format.exit, label %25

parse_pixel_format.exit:                          ; preds = %18, %22
  tail call void (ptr, i32, ptr, ...) @av_log(ptr noundef %0, i32 noundef 16, ptr noundef nonnull @.str.14, ptr noundef nonnull %.058) #8
  call void @llvm.lifetime.end.p0(i64 8, ptr nonnull %2) #8
  br label %.thread

25:                                               ; preds = %22, %15
  %.1.ph = phi i32 [ %16, %15 ], [ %23, %22 ]
  call void @llvm.lifetime.end.p0(i64 8, ptr nonnull %2) #8
  %26 = sext i32 %.1.ph to i64
  %27 = tail call i32 @ff_add_format(ptr noundef nonnull %7, i64 noundef %26) #8
  %28 = icmp slt i32 %27, 0
  br i1 %28, label %.thread, label %8, !llvm.loop !25

29:                                               ; preds = %8
  %30 = getelementptr inbounds nuw i8, ptr %4, i64 16
  %31 = load ptr, ptr %30, align 8, !tbaa !27
  %32 = getelementptr inbounds nuw i8, ptr %4, i64 40
  br label %33

33:                                               ; preds = %43, %29
  %.055 = phi ptr [ %31, %29 ], [ %.056, %43 ]
  %.not92 = icmp eq ptr %.055, null
  br i1 %.not92, label %47, label %34

34:                                               ; preds = %33
  %35 = tail call ptr @strchr(ptr noundef nonnull dereferenceable(1) %.055, i32 noundef 124) #7
  %.not93 = icmp eq ptr %35, null
  br i1 %.not93, label %40, label %36

36:                                               ; preds = %34
  %37 = load i8, ptr %35, align 1, !tbaa !23
  %.not94 = icmp eq i8 %37, 0
  br i1 %.not94, label %40, label %38

38:                                               ; preds = %36
  %39 = getelementptr inbounds nuw i8, ptr %35, i64 1
  store i8 0, ptr %35, align 1, !tbaa !23
  br label %40

40:                                               ; preds = %38, %36, %34
  %.056 = phi ptr [ %39, %38 ], [ %35, %36 ], [ null, %34 ]
  %41 = tail call i32 @av_color_space_from_name(ptr noundef nonnull %.055) #8
  %42 = icmp slt i32 %41, 0
  br i1 %42, label %.thread, label %43

43:                                               ; preds = %40
  %44 = zext nneg i32 %41 to i64
  %45 = tail call i32 @ff_add_format(ptr noundef nonnull %32, i64 noundef %44) #8
  %46 = icmp slt i32 %45, 0
  br i1 %46, label %.thread, label %33, !llvm.loop !28

47:                                               ; preds = %33
  %48 = getelementptr inbounds nuw i8, ptr %4, i64 24
  %49 = load ptr, ptr %48, align 8, !tbaa !29
  %50 = getelementptr inbounds nuw i8, ptr %4, i64 48
  br label %51

51:                                               ; preds = %61, %47
  %.0 = phi ptr [ %49, %47 ], [ %.054, %61 ]
  %.not95 = icmp eq ptr %.0, null
  br i1 %.not95, label %65, label %52

52:                                               ; preds = %51
  %53 = tail call ptr @strchr(ptr noundef nonnull dereferenceable(1) %.0, i32 noundef 124) #7
  %.not96 = icmp eq ptr %53, null
  br i1 %.not96, label %58, label %54

54:                                               ; preds = %52
  %55 = load i8, ptr %53, align 1, !tbaa !23
  %.not97 = icmp eq i8 %55, 0
  br i1 %.not97, label %58, label %56

56:                                               ; preds = %54
  %57 = getelementptr inbounds nuw i8, ptr %53, i64 1
  store i8 0, ptr %53, align 1, !tbaa !23
  br label %58

58:                                               ; preds = %56, %54, %52
  %.054 = phi ptr [ %57, %56 ], [ %53, %54 ], [ null, %52 ]
  %59 = tail call i32 @av_color_range_from_name(ptr noundef nonnull %.0) #8
  %60 = icmp slt i32 %59, 0
  br i1 %60, label %.thread, label %61

61:                                               ; preds = %58
  %62 = zext nneg i32 %59 to i64
  %63 = tail call i32 @ff_add_format(ptr noundef nonnull %50, i64 noundef %62) #8
  %64 = icmp slt i32 %63, 0
  br i1 %64, label %.thread, label %51, !llvm.loop !30

65:                                               ; preds = %51
  %66 = getelementptr inbounds nuw i8, ptr %0, i64 8
  %67 = load ptr, ptr %66, align 8, !tbaa !31
  %68 = load ptr, ptr %67, align 8, !tbaa !32
  %69 = tail call i32 @strcmp(ptr noundef nonnull dereferenceable(1) %68, ptr noundef nonnull dereferenceable(9) @.str.2) #7
  %.not98 = icmp eq i32 %69, 0
  br i1 %.not98, label %70, label %82

70:                                               ; preds = %65
  %71 = tail call ptr @ff_all_formats(i32 noundef 0) #8
  %72 = tail call fastcc i32 @invert_formats(ptr noundef nonnull %7, ptr noundef %71) #9
  %73 = icmp slt i32 %72, 0
  br i1 %73, label %.thread, label %74

74:                                               ; preds = %70
  %75 = tail call ptr @ff_all_color_spaces() #8
  %76 = tail call fastcc i32 @invert_formats(ptr noundef nonnull %32, ptr noundef %75) #9
  %77 = icmp slt i32 %76, 0
  br i1 %77, label %.thread, label %78

78:                                               ; preds = %74
  %79 = tail call ptr @ff_all_color_ranges() #8
  %80 = tail call fastcc i32 @invert_formats(ptr noundef nonnull %50, ptr noundef %79) #9
  %81 = icmp slt i32 %80, 0
  br i1 %81, label %.thread, label %82

82:                                               ; preds = %78, %65
  %83 = load ptr, ptr %7, align 8, !tbaa !34
  %.not99 = icmp eq ptr %83, null
  br i1 %.not99, label %87, label %84

84:                                               ; preds = %82
  %85 = tail call i32 @ff_formats_ref(ptr noundef nonnull %83, ptr noundef nonnull %7) #8
  %86 = icmp slt i32 %85, 0
  br i1 %86, label %.thread, label %87

87:                                               ; preds = %84, %82
  %88 = load ptr, ptr %32, align 8, !tbaa !35
  %.not100 = icmp eq ptr %88, null
  br i1 %.not100, label %92, label %89

89:                                               ; preds = %87
  %90 = tail call i32 @ff_formats_ref(ptr noundef nonnull %88, ptr noundef nonnull %32) #8
  %91 = icmp slt i32 %90, 0
  br i1 %91, label %.thread, label %92

92:                                               ; preds = %89, %87
  %93 = load ptr, ptr %50, align 8, !tbaa !36
  %.not101 = icmp eq ptr %93, null
  br i1 %.not101, label %97, label %94

94:                                               ; preds = %92
  %95 = tail call i32 @ff_formats_ref(ptr noundef nonnull %93, ptr noundef nonnull %50) #8
  %96 = icmp slt i32 %95, 0
  br i1 %96, label %.thread, label %97

97:                                               ; preds = %94, %92
  br label %.thread

.thread:                                          ; preds = %25, %43, %40, %61, %58, %parse_pixel_format.exit, %84, %89, %94, %70, %74, %78, %97
  %.164 = phi i32 [ 0, %97 ], [ %72, %70 ], [ %76, %74 ], [ %80, %78 ], [ %85, %84 ], [ %90, %89 ], [ %95, %94 ], [ -22, %parse_pixel_format.exit ], [ %59, %58 ], [ %63, %61 ], [ %41, %40 ], [ %45, %43 ], [ %27, %25 ]
  ret i32 %.164
}